; Function Attrs: mustprogress uwtable
define hidden noundef i32 @_ZN4cvc58internal6theory11quantifiers15CegInstantiator10isCbqiSortENS0_8TypeNodeE(ptr noundef readonly captures(none) %0) local_unnamed_addr #3 align 2 personality ptr @__gxx_personality_v0 {
  %2 = alloca %"class.std::map.580", align 8
  %3 = alloca %"class.cvc5::internal::TypeNode", align 8
  call void @llvm.lifetime.start.p0(i64 48, ptr nonnull %2) #24
  %4 = getelementptr inbounds nuw i8, ptr %2, i64 8
  store i32 0, ptr %4, align 8, !tbaa !34
  %5 = getelementptr inbounds nuw i8, ptr %2, i64 16
  store ptr null, ptr %5, align 8, !tbaa !39
  %6 = getelementptr inbounds nuw i8, ptr %2, i64 24
  store ptr %4, ptr %6, align 8, !tbaa !40
  %7 = getelementptr inbounds nuw i8, ptr %2, i64 32
  store ptr %4, ptr %7, align 8, !tbaa !41
  %8 = getelementptr inbounds nuw i8, ptr %2, i64 40
  store i64 0, ptr %8, align 8, !tbaa !42
  %9 = load ptr, ptr %0, align 8, !tbaa !227
  store ptr %9, ptr %3, align 8, !tbaa !227
  %10 = load i64, ptr %9, align 8
  %11 = lshr i64 %10, 40
  %12 = trunc nuw nsw i64 %11 to i32
  %13 = and i32 %12, 1048575
  %14 = icmp samesign ult i32 %13, 1048574
  br i1 %14, label %15, label %20, !prof !11

15:                                               ; preds = %1
  %16 = add i64 %10, 1099511627776
  %17 = and i64 %16, 1152920405095219200
  %18 = and i64 %10, -1152920405095219201
  %19 = or disjoint i64 %17, %18
  store i64 %19, ptr %9, align 8
  br label %_ZN4cvc58internal8TypeNodeC2ERKS1_.exit

20:                                               ; preds = %1
  %21 = icmp eq i32 %13, 1048574
  br i1 %21, label %22, label %_ZN4cvc58internal8TypeNodeC2ERKS1_.exit, !prof !12

22:                                               ; preds = %20
  %23 = or i64 %10, 1152920405095219200
  store i64 %23, ptr %9, align 8
  invoke void @_ZN4cvc58internal4expr9NodeValue20markRefCountMaxedOutEv(ptr noundef nonnull align 8 dereferenceable(24) %9)
          to label %_ZN4cvc58internal8TypeNodeC2ERKS1_.exit unwind label %43

_ZN4cvc58internal8TypeNodeC2ERKS1_.exit:          ; preds = %20, %15, %22
  %24 = invoke noundef i32 @_ZN4cvc58internal6theory11quantifiers15CegInstantiator10isCbqiSortENS0_8TypeNodeERSt3mapIS4_NS2_16CegHandledStatusESt4lessIS4_ESaISt4pairIKS4_S6_EEE(ptr noundef nonnull %3, ptr noundef nonnull align 8 dereferenceable(48) %2)
          to label %25 unwind label %45

25:                                               ; preds = %_ZN4cvc58internal8TypeNodeC2ERKS1_.exit
  %26 = load ptr, ptr %3, align 8, !tbaa !227
  %27 = load i64, ptr %26, align 8
  %28 = and i64 %27, 1152920405095219200
  %.not.i.i = icmp eq i64 %28, 1152920405095219200
  br i1 %.not.i.i, label %_ZN4cvc58internal8TypeNodeD2Ev.exit, label %29, !prof !12

29:                                               ; preds = %25
  %30 = add i64 %27, 1152920405095219200
  %31 = and i64 %30, 1152920405095219200
  %32 = and i64 %27, -1152920405095219201
  %33 = or disjoint i64 %31, %32
  store i64 %33, ptr %26, align 8
  %34 = icmp eq i64 %31, 0
  br i1 %34, label %35, label %_ZN4cvc58internal8TypeNodeD2Ev.exit, !prof !12

35:                                               ; preds = %29
  invoke void @_ZN4cvc58internal4expr9NodeValue15markForDeletionEv(ptr noundef nonnull align 8 dereferenceable(24) %26)
          to label %_ZN4cvc58internal8TypeNodeD2Ev.exit unwind label %36

36:                                               ; preds = %35
  %37 = landingpad { ptr, i32 }
          catch ptr null
  %38 = extractvalue { ptr, i32 } %37, 0
  call void @__clang_call_terminate(ptr %38) #26
  unreachable

_ZN4cvc58internal8TypeNodeD2Ev.exit:              ; preds = %25, %29, %35
  %39 = load ptr, ptr %5, align 8, !tbaa !39
  invoke void @_ZNSt8_Rb_treeIN4cvc58internal8TypeNodeESt4pairIKS2_NS1_6theory11quantifiers16CegHandledStatusEESt10_Select1stIS8_ESt4lessIS2_ESaIS8_EE8_M_eraseEPSt13_Rb_tree_nodeIS8_E(ptr noundef nonnull align 8 dereferenceable(48) %2, ptr noundef %39)
          to label %_ZNSt3mapIN4cvc58internal8TypeNodeENS1_6theory11quantifiers16CegHandledStatusESt4lessIS2_ESaISt4pairIKS2_S5_EEED2Ev.exit unwind label %40

40:                                               ; preds = %_ZN4cvc58internal8TypeNodeD2Ev.exit
  %41 = landingpad { ptr, i32 }
          catch ptr null
  %42 = extractvalue { ptr, i32 } %41, 0
  call void @__clang_call_terminate(ptr %42) #26
  unreachable

_ZNSt3mapIN4cvc58internal8TypeNodeENS1_6theory11quantifiers16CegHandledStatusESt4lessIS2_ESaISt4pairIKS2_S5_EEED2Ev.exit: ; preds = %_ZN4cvc58internal8TypeNodeD2Ev.exit
  call void @llvm.lifetime.end.p0(i64 48, ptr nonnull %2) #24
  ret i32 %24

43:                                               ; preds = %22
  %44 = landingpad { ptr, i32 }
          cleanup
  br label %47

45:                                               ; preds = %_ZN4cvc58internal8TypeNodeC2ERKS1_.exit
  %46 = landingpad { ptr, i32 }
          cleanup
  call void @_ZN4cvc58internal8TypeNodeD2Ev(ptr noundef nonnull align 8 dereferenceable(8) %3) #24
  br label %47

47:                                               ; preds = %45, %43
  %.pn = phi { ptr, i32 } [ %46, %45 ], [ %44, %43 ]
  call void @_ZNSt3mapIN4cvc58internal8TypeNodeENS1_6theory11quantifiers16CegHandledStatusESt4lessIS2_ESaISt4pairIKS2_S5_EEED2Ev(ptr noundef nonnull align 8 dereferenceable(48) %2) #24
  call void @llvm.lifetime.end.p0(i64 48, ptr nonnull %2) #24
  resume { ptr, i32 } %.pn
}